; Function Attrs: mustprogress uwtable
define hidden void @_ZN7nanogui10ImagePanelC2EPNS_6WidgetE(ptr noundef nonnull align 8 dereferenceable(216) %0, ptr noundef %1) unnamed_addr #0 align 2 {
  tail call void @_ZN7nanogui6WidgetC2EPS0_(ptr noundef nonnull align 8 dereferenceable(140) %0, ptr noundef %1)
  store ptr getelementptr inbounds ({ [17 x ptr] }, ptr @_ZTVN7nanogui10ImagePanelE, i64 0, i32 0, i64 2), ptr %0, align 8
  %3 = getelementptr inbounds i8, ptr %0, i64 144
  %4 = getelementptr inbounds i8, ptr %0, i64 200
  tail call void @llvm.memset.p0.i64(ptr noundef nonnull align 8 dereferenceable(56) %3, i8 0, i64 56, i1 false)
  store <4 x i32> <i32 64, i32 10, i32 10, i32 -1>, ptr %4, align 8
  ret void
}